ccopy_reg
_reconstructor
p0
(ch2o.automl.autoh2o
H2OAutoML
p1
cdill.dill
_load_type
p2
(S'ObjectType'
p3
tp4
Rp5
Ntp6
Rp7
(dp8
S'project_name'
p9
NsS'max_runtime_secs'
p10
I3600
sS'stopping_metric'
p11
S'AUTO'
p12
sS'_leader_id'
p13
VStackedEnsemble_AllModels_0_AutoML_20180731_024402
p14
sS'stopping_rounds'
p15
I3
sS'_leaderboard'
p16
g0
(ch2o.frame
H2OFrame
p17
g5
Ntp18
Rp19
(dp20
S'_ex'
p21
g0
(ch2o.expr
ExprNode
p22
g5
Ntp23
Rp24
(dp25
S'_cache'
p26
g0
(ch2o.expr
H2OCache
p27
g5
Ntp28
Rp29
(dp30
S'_types'
p31
(dp32
Vmodel_id
p33
Vstring
p34
sVrmse
p35
Vreal
p36
sVmae
p37
Vreal
p38
sVrmsle
p39
Vreal
p40
sVmean_residual_deviance
p41
Vreal
p42
ssS'_nrows'
p43
I12
sS'_names'
p44
(lp45
g33
ag41
ag35
ag37
ag39
asS'_l'
p46
I10
sS'_ncols'
p47
I5
sS'_data'
p48
ccollections
OrderedDict
p49
((lp50
(lp51
g33
ag0
(ch2o.backend.connection
H2OResponse
p52
g2
(S'DictType'
p53
tp54
Rp55
(dp56
Vzero_count
p57
I0
sVhistogram_base
p58
F0.0
sVdomain
p59
NsVpositive_infinity_count
p60
I0
sVprecision
p61
I-1
sVnegative_infinity_count
p62
I0
sVhistogram_stride
p63
F0.0
sVmins
p64
(lp65
VNaN
p66
aVNaN
p67
aVNaN
p68
aVNaN
p69
aVNaN
p70
asVdata
p71
(lp72
VStackedEnsemble_AllModels_0_AutoML_20180731_024402
p73
aVStackedEnsemble_BestOfFamily_0_AutoML_20180731_024402
p74
aVGBM_grid_0_AutoML_20180731_024402_model_4
p75
aVGBM_grid_0_AutoML_20180731_024402_model_2
p76
aVGBM_grid_0_AutoML_20180731_024402_model_1
p77
aVGBM_grid_0_AutoML_20180731_024402_model_3
p78
aVDeepLearning_0_AutoML_20180731_024402
p79
aVGBM_grid_0_AutoML_20180731_024402_model_0
p80
aVDRF_0_AutoML_20180731_024402
p81
aVXRT_0_AutoML_20180731_024402
p82
asVmissing_count
p83
I0
sVsigma
p84
VNaN
p85
sVpercentiles
p86
NsVmaxs
p87
(lp88
VNaN
p89
aVNaN
p90
aVNaN
p91
aVNaN
p92
aVNaN
p93
asVhistogram_bins
p94
NsVtype
p95
g34
sVmean
p96
VNaN
p97
stp98
Rp99
aa(lp100
g41
ag0
(g52
g55
(dp101
g57
I0
sg58
F0.0
sg59
Nsg60
I0
sg61
I-1
sg62
I0
sg63
F0.0
sg64
(lp102
F948309.4744164146
aF954067.0674426786
aF973541.7085481086
aF981858.5895022132
aF982456.3769093744
asg71
(lp103
F948309.4744164146
aF954067.0674426786
aF973541.7085481086
aF981858.5895022132
aF982456.3769093744
aF982966.545563271
aF987368.1296419112
aF990865.260677679
aF1052686.5716541251
aF1062594.494442162
asg83
I0
sg84
F149049.1322776146
sg86
Nsg87
(lp104
F1411403.04145121
aF1309233.163450548
aF1062594.494442162
aF1052686.5716541251
aF990865.260677679
asg94
Nsg95
g42
sg96
F1053112.5353083082
stp105
Rp106
aa(lp107
g35
ag0
(g52
g55
(dp108
g57
I0
sg58
F0.0
sg59
Nsg60
I0
sg61
I-1
sg62
I0
sg63
F0.0
sg64
(lp109
F973.8118270058208
aF976.7635678313758
aF986.6821720027724
aF990.8877784604132
aF991.1893748973372
asg71
(lp110
F973.8118270058208
aF976.7635678313758
aF986.6821720027724
aF990.8877784604132
aF991.1893748973372
aF991.4466932534856
aF993.6639923243224
aF995.4221519926502
aF1026.005151865294
aF1030.8222419225158
asg83
I0
sg84
F69.09757799918286
sg86
Nsg87
(lp111
F1188.0248488357513
aF1144.217271085587
aF1030.8222419225158
aF1026.005151865294
aF995.4221519926502
asg94
Nsg95
g36
sg96
F1024.0780892897772
stp112
Rp113
aa(lp114
g37
ag0
(g52
g55
(dp115
g57
I0
sg58
F0.0
sg59
Nsg60
I0
sg61
I-1
sg62
I0
sg63
F0.0
sg64
(lp116
F625.3100766329987
aF626.9006975640771
aF636.6289681326697
aF640.401963088835
aF641.2050838746675
asg71
(lp117
F625.3100766329987
aF626.9006975640771
aF636.6289681326697
aF641.4775006817902
aF641.5701651976875
aF641.2050838746675
aF640.401963088835
aF646.5794065558048
aF674.2317716368693
aF679.8580978371025
asg83
I0
sg84
F64.5453365542813
sg86
Nsg87
(lp118
F824.8124588928607
aF783.7733612515549
aF679.8580978371025
aF674.2317716368693
aF646.5794065558048
asg94
Nsg95
g38
sg96
F671.8957959455763
stp119
Rp120
aa(lp121
g39
ag0
(g52
g55
(dp122
g57
I0
sg58
F0.0
sg59
Nsg60
I0
sg61
I-1
sg62
I0
sg63
F0.0
sg64
(lp123
F0.28123377056846716
aF0.2819962506575841
aF0.28636804829829393
aF0.2879704880678115
aF0.2880780068788799
asg71
(lp124
F0.28123377056846716
aF0.2819962506575841
aF0.28636804829829393
aF0.2881854752140839
aF0.2880780068788799
aF0.2882380529453456
aF0.2879704880678115
aF0.2900662325842253
aF0.30212483433552684
aF0.3041293307648626
asg83
I0
sg84
F0.028703587117107927
sg86
Nsg87
(lp125
F0.36955351454891977
aF0.3520710597532208
aF0.3041293307648626
aF0.30212483433552684
aF0.2900662325842253
asg94
Nsg95
g40
sg96
F0.3016679220514351
stp126
Rp127
aatp128
Rp129
sS'_id'
p130
Vpy_1_sid_b97c
p131
sbsS'_op'
p132
Vcols_py
p133
sS'_children'
p134
(g0
(g22
g5
Ntp135
Rp136
(dp137
g26
g0
(g27
g5
Ntp138
Rp139
(dp140
g31
(dp141
Vmodel_id
p142
Vstring
p143
sVrmse
p144
Vreal
p145
sVmae
p146
Vreal
p147
sVmean_residual_deviance
p148
Vreal
p149
sVC1
p150
Vint
p151
sVrmsle
p152
Vreal
p153
ssg43
I12
sg44
(lp154
g150
ag142
ag148
ag144
ag146
ag152
asg46
I10
sg47
I6
sg48
g49
((lp155
(lp156
g150
ag0
(g52
g55
(dp157
Vzero_count
p158
I1
sVhistogram_base
p159
F0.0
sVdomain
p160
NsVpositive_infinity_count
p161
I0
sVprecision
p162
I-1
sVnegative_infinity_count
p163
I0
sVhistogram_stride
p164
F0.0
sVmins
p165
(lp166
F0.0
aF1.0
aF2.0
aF3.0
aF4.0
asVdata
p167
(lp168
F0.0
aF1.0
aF2.0
aF3.0
aF4.0
aF5.0
aF6.0
aF7.0
aF8.0
aF9.0
asVmissing_count
p169
I0
sVsigma
p170
F3.605551275463989
sVpercentiles
p171
NsVmaxs
p172
(lp173
F11.0
aF10.0
aF9.0
aF8.0
aF7.0
asVhistogram_bins
p174
NsVtype
p175
g151
sVmean
p176
F5.5
stp177
Rp178
aa(lp179
g142
ag0
(g52
g55
(dp180
g158
I0
sg159
F0.0
sg160
Nsg161
I0
sg162
I-1
sg163
I0
sg164
F0.0
sg165
(lp181
VNaN
p182
aVNaN
p183
aVNaN
p184
aVNaN
p185
aVNaN
p186
asg167
(lp187
VStackedEnsemble_AllModels_0_AutoML_20180731_024402
p188
aVStackedEnsemble_BestOfFamily_0_AutoML_20180731_024402
p189
aVGBM_grid_0_AutoML_20180731_024402_model_4
p190
aVGBM_grid_0_AutoML_20180731_024402_model_2
p191
aVGBM_grid_0_AutoML_20180731_024402_model_1
p192
aVGBM_grid_0_AutoML_20180731_024402_model_3
p193
aVDeepLearning_0_AutoML_20180731_024402
p194
aVGBM_grid_0_AutoML_20180731_024402_model_0
p195
aVDRF_0_AutoML_20180731_024402
p196
aVXRT_0_AutoML_20180731_024402
p197
asg169
I0
sg170
VNaN
p198
sg171
Nsg172
(lp199
VNaN
p200
aVNaN
p201
aVNaN
p202
aVNaN
p203
aVNaN
p204
asg174
Nsg175
g143
sg176
VNaN
p205
stp206
Rp207
aa(lp208
g148
ag0
(g52
g55
(dp209
g158
I0
sg159
F0.0
sg160
Nsg161
I0
sg162
I-1
sg163
I0
sg164
F0.0
sg165
(lp210
F948309.4744164146
aF954067.0674426786
aF973541.7085481086
aF981858.5895022132
aF982456.3769093744
asg167
(lp211
F948309.4744164146
aF954067.0674426786
aF973541.7085481086
aF981858.5895022132
aF982456.3769093744
aF982966.545563271
aF987368.1296419112
aF990865.260677679
aF1052686.5716541251
aF1062594.494442162
asg169
I0
sg170
F149049.1322776146
sg171
Nsg172
(lp212
F1411403.04145121
aF1309233.163450548
aF1062594.494442162
aF1052686.5716541251
aF990865.260677679
asg174
Nsg175
g149
sg176
F1053112.5353083082
stp213
Rp214
aa(lp215
g144
ag0
(g52
g55
(dp216
g158
I0
sg159
F0.0
sg160
Nsg161
I0
sg162
I-1
sg163
I0
sg164
F0.0
sg165
(lp217
F973.8118270058208
aF976.7635678313758
aF986.6821720027724
aF990.8877784604132
aF991.1893748973372
asg167
(lp218
F973.8118270058208
aF976.7635678313758
aF986.6821720027724
aF990.8877784604132
aF991.1893748973372
aF991.4466932534856
aF993.6639923243224
aF995.4221519926502
aF1026.005151865294
aF1030.8222419225158
asg169
I0
sg170
F69.09757799918286
sg171
Nsg172
(lp219
F1188.0248488357513
aF1144.217271085587
aF1030.8222419225158
aF1026.005151865294
aF995.4221519926502
asg174
Nsg175
g145
sg176
F1024.0780892897772
stp220
Rp221
aa(lp222
g146
ag0
(g52
g55
(dp223
g158
I0
sg159
F0.0
sg160
Nsg161
I0
sg162
I-1
sg163
I0
sg164
F0.0
sg165
(lp224
F625.3100766329987
aF626.9006975640771
aF636.6289681326697
aF640.401963088835
aF641.2050838746675
asg167
(lp225
F625.3100766329987
aF626.9006975640771
aF636.6289681326697
aF641.4775006817902
aF641.5701651976875
aF641.2050838746675
aF640.401963088835
aF646.5794065558048
aF674.2317716368693
aF679.8580978371025
asg169
I0
sg170
F64.5453365542813
sg171
Nsg172
(lp226
F824.8124588928607
aF783.7733612515549
aF679.8580978371025
aF674.2317716368693
aF646.5794065558048
asg174
Nsg175
g147
sg176
F671.8957959455763
stp227
Rp228
aa(lp229
g152
ag0
(g52
g55
(dp230
g158
I0
sg159
F0.0
sg160
Nsg161
I0
sg162
I-1
sg163
I0
sg164
F0.0
sg165
(lp231
F0.28123377056846716
aF0.2819962506575841
aF0.28636804829829393
aF0.2879704880678115
aF0.2880780068788799
asg167
(lp232
F0.28123377056846716
aF0.2819962506575841
aF0.28636804829829393
aF0.2881854752140839
aF0.2880780068788799
aF0.2882380529453456
aF0.2879704880678115
aF0.2900662325842253
aF0.30212483433552684
aF0.3041293307648626
asg169
I0
sg170
F0.028703587117107927
sg171
Nsg172
(lp233
F0.36955351454891977
aF0.3520710597532208
aF0.3041293307648626
aF0.30212483433552684
aF0.2900662325842253
asg174
Nsg175
g153
sg176
F0.3016679220514351
stp234
Rp235
aatp236
Rp237
sg130
VKey_Frame__upload_80f6618b3b0de210f81a25b80b054cb0.hex
p238
sbsg132
V
p239
sg134
Nsbg2
(S'SliceType'
p240
tp241
Rp242
(I1
I6
I1
tp243
Rp244
tp245
sbsS'_is_frame'
p246
I01
sbsS'stopping_tolerence'
p247
NsS'_job'
p248
g0
(ch2o.job
H2OJob
p249
g5
Ntp250
Rp251
(dp252
S'status'
p253
VDONE
p254
sS'_polling'
p255
I00
sS'exception'
p256
NsS'job_key'
p257
V$03017f00000132d4ffffffff$_abf060883ab7455ef3caf60a368d42e9
p258
sS'warnings'
p259
NsS'_job_type'
p260
S'AutoML'
p261
sS'dest_key'
p262
VAutoML_20180731_024402
p263
sS'job'
p264
g0
(g52
g55
(dp265
Vstatus
p266
g254
sVstacktrace
p267
NsVexception
p268
NsVdescription
p269
VAutoML build
p270
sVwarnings
p271
NsVdest
p272
g0
(g52
g55
(dp273
VURL
p274
NsVtype
p275
VKey<AutoML>
p276
sVname
p277
VAutoML_20180731_024402
p278
sV__meta
p279
g0
(g52
g55
(dp280
Vschema_version
p281
I3
sVschema_name
p282
VAutoMLKeyV3
p283
sVschema_type
p284
VKey<AutoML>
p285
stp286
Rp287
stp288
Rp289
sVstart_time
p290
I1533030243560
sVmsec
p291
I1683474
sVready_for_view
p292
I01
sg279
g0
(g52
g55
(dp293
g281
I3
sg282
VJobV3
p294
sg284
VJob
p295
stp296
Rp297
sVprogress_msg
p298
VDone.
p299
sVkey
p300
g0
(g52
g55
(dp301
g274
V/3/Jobs/$03017f00000132d4ffffffff$_abf060883ab7455ef3caf60a368d42e9
p302
sg275
VKey<Job>
p303
sg277
V$03017f00000132d4ffffffff$_abf060883ab7455ef3caf60a368d42e9
p304
sg279
g0
(g52
g55
(dp305
g281
I3
sg282
VJobKeyV3
p306
sg284
VKey<Job>
p307
stp308
Rp309
stp310
Rp311
sVprogress
p312
F1.0
stp313
Rp314
sS'progress'
p315
I1
sS'_poll_count'
p316
I9999998757
sbsS'max_models'
p317
I10
sS'nfolds'
p318
I5
sS'build_models'
p319
(dp320
S'exclude_algos'
p321
NssS'_automl_key'
p322
g263
sS'build_control'
p323
(dp324
g318
I5
sS'stopping_criteria'
p325
(dp326
g11
g12
sg317
I10
sg10
I3600
sg15
I3
sssb.